target datalayout = "e-m:e-p270:32:32-p271:32:32-p272:64:64-i64:64-i128:128-f80:128-n8:16:32:64-S128"
target triple = "x86_64-pc-linux-gnu"

%struct.pmix_pointer_array_t = type { %struct.pmix_object_t, i32, i32, i32, i32, i32, ptr, ptr }
%struct.pmix_object_t = type { %union.pthread_mutex_t, ptr, i32, %struct.pmix_tma }
%union.pthread_mutex_t = type { %struct.__pthread_mutex_s }
%struct.__pthread_mutex_s = type { i32, i32, i32, i32, i32, i16, i16, %struct.__pthread_internal_list }
%struct.__pthread_internal_list = type { ptr, ptr }
%struct.pmix_tma = type { ptr, ptr, ptr, ptr, ptr, ptr, ptr, ptr }
%struct.pmix_proc = type { [256 x i8], i32 }
%struct.pmix_list_t = type { %struct.pmix_object_t, %struct.pmix_list_item_t, i64 }
%struct.pmix_list_item_t = type { %struct.pmix_object_t, ptr, ptr, i32 }
%struct.pmix_class_t = type { ptr, ptr, ptr, ptr, i32, i32, ptr, ptr, i64 }
%struct.timeval = type { i64, i64 }
%struct.pmix_server_globals_t = type { i8, i32, i32, %struct.pmix_pointer_array_t, %struct.pmix_pointer_array_t, i32, i8, %struct.pmix_proc, %struct.pmix_list_t, i8, i8, i8, i8, i8, %struct.pmix_proc, i8, ptr, ptr, i64, %struct.pmix_list_t, %struct.pmix_list_t, %struct.pmix_list_t }
%struct.event = type { %struct.event_callback, %union.anon.0, i32, ptr, %union.anon.2, i16, i16, %struct.timeval }
%struct.event_callback = type { %struct.anon, i16, i8, i8, %union.anon, ptr }
%struct.anon = type { ptr, ptr }
%union.anon = type { ptr }
%union.anon.0 = type { %struct.anon.1 }
%struct.anon.1 = type { ptr, ptr }
%union.anon.2 = type { %struct.anon.3 }
%struct.anon.3 = type { %struct.anon.4, %struct.timeval }
%struct.anon.4 = type { ptr, ptr }
%struct.prte_pmix_server_op_caddy_t = type { %struct.pmix_object_t, %struct.event, i32, ptr, i64, %struct.pmix_proc, ptr, ptr, %struct.pmix_proc, ptr, i64, ptr, i64, ptr, i64, ptr, i64, ptr, i64, ptr, i64, ptr, ptr, ptr, ptr, ptr }

@.str.56 = private unnamed_addr constant [21 x i8] c"pthread_mutex_lock()\00", align 1
@.str.267 = private unnamed_addr constant [11 x i8] c"LOG FAILED\00", align 1

; Function Attrs: inlinehint nounwind uwtable
define internal void @pmix_tma_free(ptr noundef %0, ptr noundef %1) #4 {
  %3 = alloca ptr, align 8
  %4 = alloca ptr, align 8
  store ptr %0, ptr %3, align 8, !tbaa !68
  store ptr %1, ptr %4, align 8, !tbaa !36
  %5 = load ptr, ptr %3, align 8, !tbaa !68
  %6 = icmp ne ptr null, %5
  br i1 %6, label %7, label %13

7:                                                ; preds = %2
  %8 = load ptr, ptr %3, align 8, !tbaa !68
  %9 = getelementptr inbounds nuw %struct.pmix_tma, ptr %8, i32 0, i32 5
  %10 = load ptr, ptr %9, align 8, !tbaa !70
  %11 = load ptr, ptr %3, align 8, !tbaa !68
  %12 = load ptr, ptr %4, align 8, !tbaa !36
  call void %10(ptr noundef %11, ptr noundef %12)
  br label %15

13:                                               ; preds = %2
  %14 = load ptr, ptr %4, align 8, !tbaa !36
  call void @free(ptr noundef %14) #13
  br label %15

15:                                               ; preds = %13, %7
  ret void
}

; Function Attrs: inlinehint nounwind uwtable
define internal void @pmix_obj_run_destructors(ptr noundef %0) #4 {
  %2 = alloca ptr, align 8
  %3 = alloca ptr, align 8
  store ptr %0, ptr %2, align 8, !tbaa !55
  call void @llvm.lifetime.start.p0(i64 8, ptr %3) #13
  %4 = load ptr, ptr %2, align 8, !tbaa !55
  %5 = getelementptr inbounds nuw %struct.pmix_object_t, ptr %4, i32 0, i32 1
  %6 = load ptr, ptr %5, align 8, !tbaa !64
  %7 = getelementptr inbounds nuw %struct.pmix_class_t, ptr %6, i32 0, i32 7
  %8 = load ptr, ptr %7, align 8, !tbaa !65
  store ptr %8, ptr %3, align 8, !tbaa !36
  br label %9

9:                                                ; preds = %13, %1
  %10 = load ptr, ptr %3, align 8, !tbaa !36
  %11 = load ptr, ptr %10, align 8, !tbaa !36
  %12 = icmp ne ptr null, %11
  br i1 %12, label %13, label %19

13:                                               ; preds = %9
  %14 = load ptr, ptr %3, align 8, !tbaa !36
  %15 = load ptr, ptr %14, align 8, !tbaa !36
  %16 = load ptr, ptr %2, align 8, !tbaa !55
  call void %15(ptr noundef %16)
  %17 = load ptr, ptr %3, align 8, !tbaa !36
  %18 = getelementptr inbounds nuw ptr, ptr %17, i32 1
  store ptr %18, ptr %3, align 8, !tbaa !36
  br label %9, !llvm.loop !67

19:                                               ; preds = %9
  call void @llvm.lifetime.end.p0(i64 8, ptr %3) #13
  ret void
}

; Function Attrs: alwaysinline nounwind uwtable
define internal i32 @pmix_obj_update(ptr noundef %0, i32 noundef %1) #5 {
  %3 = alloca ptr, align 8
  %4 = alloca i32, align 4
  %5 = alloca i32, align 4
  store ptr %0, ptr %3, align 8, !tbaa !55
  store i32 %1, ptr %4, align 4, !tbaa !29
  call void @llvm.lifetime.start.p0(i64 4, ptr %5) #13
  %6 = load ptr, ptr %3, align 8, !tbaa !55
  %7 = getelementptr inbounds nuw %struct.pmix_object_t, ptr %6, i32 0, i32 0
  %8 = call i32 @pthread_mutex_lock(ptr noundef %7) #13
  store i32 %8, ptr %5, align 4, !tbaa !29
  %9 = load i32, ptr %5, align 4, !tbaa !29
  %10 = icmp eq i32 %9, 35
  br i1 %10, label %11, label %14

11:                                               ; preds = %2
  %12 = load i32, ptr %5, align 4, !tbaa !29
  %13 = call ptr @__errno_location() #15
  store i32 %12, ptr %13, align 4, !tbaa !29
  call void @perror(ptr noundef @.str.56)
  call void @abort() #16
  unreachable

14:                                               ; preds = %2
  %15 = load i32, ptr %4, align 4, !tbaa !29
  %16 = load ptr, ptr %3, align 8, !tbaa !55
  %17 = getelementptr inbounds nuw %struct.pmix_object_t, ptr %16, i32 0, i32 2
  %18 = load i32, ptr %17, align 8, !tbaa !63
  %19 = add nsw i32 %18, %15
  store i32 %19, ptr %17, align 8, !tbaa !63
  store i32 %19, ptr %5, align 4, !tbaa !29
  %20 = load ptr, ptr %3, align 8, !tbaa !55
  %21 = getelementptr inbounds nuw %struct.pmix_object_t, ptr %20, i32 0, i32 0
  %22 = call i32 @pthread_mutex_unlock(ptr noundef %21) #13
  %23 = load i32, ptr %5, align 4, !tbaa !29
  call void @llvm.lifetime.end.p0(i64 4, ptr %5) #13
  ret i32 %23
}

; Function Attrs: nounwind uwtable
define internal void @log_cbfunc(i32 noundef %0, ptr noundef %1) #0 {
  %3 = alloca i32, align 4
  %4 = alloca ptr, align 8
  %5 = alloca ptr, align 8
  %6 = alloca ptr, align 8
  store i32 %0, ptr %3, align 4, !tbaa !29
  store ptr %1, ptr %4, align 8, !tbaa !36
  call void @llvm.lifetime.start.p0(i64 8, ptr %5) #13
  %7 = load ptr, ptr %4, align 8, !tbaa !36
  store ptr %7, ptr %5, align 8, !tbaa !36
  %8 = load i32, ptr %3, align 4, !tbaa !29
  %9 = icmp ne i32 0, %8
  br i1 %9, label %10, label %15

10:                                               ; preds = %2
  %11 = load i32, ptr %3, align 4, !tbaa !29
  %12 = icmp ne i32 -157, %11
  br i1 %12, label %13, label %15

13:                                               ; preds = %10
  %14 = load i32, ptr getelementptr inbounds nuw (%struct.pmix_server_globals_t, ptr @prte_pmix_server_globals, i32 0, i32 2), align 8, !tbaa !21
  call void (i32, ptr, ...) @pmix_output(i32 noundef %14, ptr noundef @.str.267)
  br label %15

15:                                               ; preds = %13, %10, %2
  %16 = load ptr, ptr %5, align 8, !tbaa !36
  %17 = getelementptr inbounds nuw %struct.prte_pmix_server_op_caddy_t, ptr %16, i32 0, i32 13
  %18 = load ptr, ptr %17, align 8, !tbaa !166
  %19 = icmp ne ptr null, %18
  br i1 %19, label %20, label %32

20:                                               ; preds = %15
  br label %21

21:                                               ; preds = %20
  %22 = load ptr, ptr %5, align 8, !tbaa !36
  %23 = getelementptr inbounds nuw %struct.prte_pmix_server_op_caddy_t, ptr %22, i32 0, i32 13
  %24 = load ptr, ptr %23, align 8, !tbaa !166
  %25 = load ptr, ptr %5, align 8, !tbaa !36
  %26 = getelementptr inbounds nuw %struct.prte_pmix_server_op_caddy_t, ptr %25, i32 0, i32 14
  %27 = load i64, ptr %26, align 8, !tbaa !167
  call void @PMIx_Info_free(ptr noundef %24, i64 noundef %27)
  %28 = load ptr, ptr %5, align 8, !tbaa !36
  %29 = getelementptr inbounds nuw %struct.prte_pmix_server_op_caddy_t, ptr %28, i32 0, i32 13
  store ptr null, ptr %29, align 8, !tbaa !166
  br label %30

30:                                               ; preds = %21
  br label %31

31:                                               ; preds = %30
  br label %32

32:                                               ; preds = %31, %15
  %33 = load ptr, ptr %5, align 8, !tbaa !36
  %34 = getelementptr inbounds nuw %struct.prte_pmix_server_op_caddy_t, ptr %33, i32 0, i32 15
  %35 = load ptr, ptr %34, align 8, !tbaa !164
  %36 = icmp ne ptr null, %35
  br i1 %36, label %37, label %49

37:                                               ; preds = %32
  br label %38

38:                                               ; preds = %37
  %39 = load ptr, ptr %5, align 8, !tbaa !36
  %40 = getelementptr inbounds nuw %struct.prte_pmix_server_op_caddy_t, ptr %39, i32 0, i32 15
  %41 = load ptr, ptr %40, align 8, !tbaa !164
  %42 = load ptr, ptr %5, align 8, !tbaa !36
  %43 = getelementptr inbounds nuw %struct.prte_pmix_server_op_caddy_t, ptr %42, i32 0, i32 16
  %44 = load i64, ptr %43, align 8, !tbaa !159
  call void @PMIx_Info_free(ptr noundef %41, i64 noundef %44)
  %45 = load ptr, ptr %5, align 8, !tbaa !36
  %46 = getelementptr inbounds nuw %struct.prte_pmix_server_op_caddy_t, ptr %45, i32 0, i32 15
  store ptr null, ptr %46, align 8, !tbaa !164
  br label %47

47:                                               ; preds = %38
  br label %48

48:                                               ; preds = %47
  br label %49

49:                                               ; preds = %48, %32
  br label %50

50:                                               ; preds = %49
  call void @llvm.lifetime.start.p0(i64 8, ptr %6) #13
  %51 = load ptr, ptr %5, align 8, !tbaa !36
  store ptr %51, ptr %6, align 8, !tbaa !55
  %52 = load ptr, ptr %6, align 8, !tbaa !55
  %53 = call i32 @pmix_obj_update(ptr noundef %52, i32 noundef -1)
  %54 = icmp eq i32 0, %53
  br i1 %54, label %55, label %69

55:                                               ; preds = %50
  %56 = load ptr, ptr %6, align 8, !tbaa !55
  call void @pmix_obj_run_destructors(ptr noundef %56)
  %57 = load ptr, ptr %6, align 8, !tbaa !55
  %58 = getelementptr inbounds nuw %struct.pmix_object_t, ptr %57, i32 0, i32 3
  %59 = getelementptr inbounds nuw %struct.pmix_tma, ptr %58, i32 0, i32 5
  %60 = load ptr, ptr %59, align 8, !tbaa !57
  %61 = icmp ne ptr null, %60
  br i1 %61, label %62, label %66

62:                                               ; preds = %55
  %63 = load ptr, ptr %6, align 8, !tbaa !55
  %64 = getelementptr inbounds nuw %struct.pmix_object_t, ptr %63, i32 0, i32 3
  %65 = load ptr, ptr %5, align 8, !tbaa !36
  call void @pmix_tma_free(ptr noundef %64, ptr noundef %65)
  br label %68

66:                                               ; preds = %55
  %67 = load ptr, ptr %5, align 8, !tbaa !36
  call void @free(ptr noundef %67) #13
  br label %68

68:                                               ; preds = %66, %62
  store ptr null, ptr %5, align 8, !tbaa !36
  br label %69

69:                                               ; preds = %68, %50
  call void @llvm.lifetime.end.p0(i64 8, ptr %6) #13
  br label %70

70:                                               ; preds = %69
  br label %71

71:                                               ; preds = %70
  call void @llvm.lifetime.end.p0(i64 8, ptr %5) #13
  ret void
}