; Function Attrs: nounwind uwtable
define internal void @log_cbfunc(i32 noundef %0, ptr noundef %1) #0 {
  switch i32 %0, label %3 [
    i32 -157, label %5
    i32 0, label %5
  ]

3:                                                ; preds = %2
  %4 = load i32, ptr getelementptr inbounds nuw (i8, ptr @prte_pmix_server_globals, i64 8), align 8, !tbaa !21
  tail call void (i32, ptr, ...) @pmix_output(i32 noundef %4, ptr noundef nonnull @.str.267) #17
  br label %5

5:                                                ; preds = %2, %2, %3
  %6 = getelementptr inbounds nuw i8, ptr %1, i64 848
  %7 = load ptr, ptr %6, align 8, !tbaa !148
  %.not = icmp eq ptr %7, null
  br i1 %.not, label %11, label %8

8:                                                ; preds = %5
  %9 = getelementptr inbounds nuw i8, ptr %1, i64 856
  %10 = load i64, ptr %9, align 8, !tbaa !149
  tail call void @PMIx_Info_free(ptr noundef nonnull %7, i64 noundef %10) #17
  store ptr null, ptr %6, align 8, !tbaa !148
  br label %11

11:                                               ; preds = %8, %5
  %12 = getelementptr inbounds nuw i8, ptr %1, i64 864
  %13 = load ptr, ptr %12, align 8, !tbaa !146
  %.not19 = icmp eq ptr %13, null
  br i1 %.not19, label %17, label %14

14:                                               ; preds = %11
  %15 = getelementptr inbounds nuw i8, ptr %1, i64 872
  %16 = load i64, ptr %15, align 8, !tbaa !140
  tail call void @PMIx_Info_free(ptr noundef nonnull %13, i64 noundef %16) #17
  store ptr null, ptr %12, align 8, !tbaa !146
  br label %17

17:                                               ; preds = %11, %14
  %18 = tail call i32 @pthread_mutex_lock(ptr noundef nonnull %1) #17
  %19 = icmp eq i32 %18, 35
  br i1 %19, label %20, label %pmix_obj_update.exit

20:                                               ; preds = %17
  %21 = tail call ptr @__errno_location() #19
  store i32 35, ptr %21, align 4, !tbaa !51
  tail call void @perror(ptr noundef nonnull @.str.56) #20
  tail call void @abort() #21
  unreachable

pmix_obj_update.exit:                             ; preds = %17
  %22 = getelementptr inbounds nuw i8, ptr %1, i64 48
  %23 = load i32, ptr %22, align 8, !tbaa !52
  %24 = add nsw i32 %23, -1
  store i32 %24, ptr %22, align 8, !tbaa !52
  %25 = tail call i32 @pthread_mutex_unlock(ptr noundef nonnull %1) #17
  %26 = icmp eq i32 %24, 0
  br i1 %26, label %27, label %41

27:                                               ; preds = %pmix_obj_update.exit
  %28 = getelementptr inbounds nuw i8, ptr %1, i64 40
  %29 = load ptr, ptr %28, align 8, !tbaa !53
  %30 = getelementptr inbounds nuw i8, ptr %29, i64 48
  %31 = load ptr, ptr %30, align 8, !tbaa !54
  %32 = load ptr, ptr %31, align 8, !tbaa !32
  %.not6.i = icmp eq ptr %32, null
  br i1 %.not6.i, label %pmix_obj_run_destructors.exit, label %.lr.ph.i

.lr.ph.i:                                         ; preds = %27, %.lr.ph.i
  %33 = phi ptr [ %35, %.lr.ph.i ], [ %32, %27 ]
  %.07.i = phi ptr [ %34, %.lr.ph.i ], [ %31, %27 ]
  tail call void %33(ptr noundef nonnull %1) #17
  %34 = getelementptr inbounds nuw i8, ptr %.07.i, i64 8
  %35 = load ptr, ptr %34, align 8, !tbaa !32
  %.not.i = icmp eq ptr %35, null
  br i1 %.not.i, label %pmix_obj_run_destructors.exit, label %.lr.ph.i, !llvm.loop !56

pmix_obj_run_destructors.exit:                    ; preds = %.lr.ph.i, %27
  %36 = getelementptr inbounds nuw i8, ptr %1, i64 96
  %37 = load ptr, ptr %36, align 8, !tbaa !57
  %.not20 = icmp eq ptr %37, null
  br i1 %.not20, label %40, label %38

38:                                               ; preds = %pmix_obj_run_destructors.exit
  %39 = getelementptr inbounds nuw i8, ptr %1, i64 56
  tail call void %37(ptr noundef nonnull %39, ptr noundef nonnull %1) #17
  br label %41

40:                                               ; preds = %pmix_obj_run_destructors.exit
  tail call void @free(ptr noundef nonnull %1) #17
  br label %41

41:                                               ; preds = %38, %40, %pmix_obj_update.exit
  ret void
}